target datalayout = "e-m:e-p270:32:32-p271:32:32-p272:64:64-i64:64-i128:128-f80:128-n8:16:32:64-S128"
target triple = "x86_64-pc-linux-gnu"

%struct.IMapEntry_s = type { %struct.dtlink_s_, %struct.dtlink_s_, i64, ptr }
%struct.dtlink_s_ = type { ptr, %union.anon }
%union.anon = type { ptr }
%struct.Agraph_s = type { %struct.Agobj_s, %struct.Agdesc_s, %struct.dtlink_s_, %struct.dtlink_s_, ptr, ptr, ptr, ptr, ptr, ptr, ptr, ptr, ptr }
%struct.Agobj_s = type { %struct.Agtag_s, ptr }
%struct.Agtag_s = type { i32, i64 }
%struct.Agdesc_s = type { i8, [3 x i8] }
%struct.Agclos_s = type { %struct.Agdisc_s, %struct.Agdstate_s, ptr, [3 x i64], ptr, [3 x ptr], [3 x ptr] }
%struct.Agdisc_s = type { ptr, ptr }
%struct.Agdstate_s = type { ptr }
%struct.dt_s_ = type { ptr, ptr, %struct.Dtdata_t, ptr, i32, ptr, ptr, ptr }
%struct.Dtdata_t = type { i32, ptr, %union.anon.0, i32, i32, i32 }
%union.anon.0 = type { ptr }

; Function Attrs: nounwind uwtable
define zeroext i1 @aginternalmaplookup(ptr noundef %0, i32 noundef %1, ptr noundef %2, ptr noundef %3) #0 {
  %5 = alloca i1, align 1
  %6 = alloca ptr, align 8
  %7 = alloca i32, align 4
  %8 = alloca ptr, align 8
  %9 = alloca ptr, align 8
  %10 = alloca ptr, align 8
  %11 = alloca ptr, align 8
  %12 = alloca %struct.IMapEntry_s, align 8
  %13 = alloca ptr, align 8
  %14 = alloca i32, align 4
  store ptr %0, ptr %6, align 8, !tbaa !3
  store i32 %1, ptr %7, align 4, !tbaa !8
  store ptr %2, ptr %8, align 8, !tbaa !10
  store ptr %3, ptr %9, align 8, !tbaa !12
  call void @llvm.lifetime.start.p0(i64 8, ptr %10) #8
  call void @llvm.lifetime.start.p0(i64 8, ptr %11) #8
  call void @llvm.lifetime.start.p0(i64 48, ptr %12) #8
  call void @llvm.lifetime.start.p0(i64 8, ptr %13) #8
  %15 = load i32, ptr %7, align 4, !tbaa !8
  %16 = icmp eq i32 %15, 3
  br i1 %16, label %17, label %18

17:                                               ; preds = %4
  store i32 2, ptr %7, align 4, !tbaa !8
  br label %18

18:                                               ; preds = %17, %4
  %19 = load ptr, ptr %6, align 8, !tbaa !3
  %20 = getelementptr inbounds nuw %struct.Agraph_s, ptr %19, i32 0, i32 12
  %21 = load ptr, ptr %20, align 8, !tbaa !14
  %22 = getelementptr inbounds nuw %struct.Agclos_s, ptr %21, i32 0, i32 5
  %23 = load i32, ptr %7, align 4, !tbaa !8
  %24 = sext i32 %23 to i64
  %25 = getelementptr inbounds [3 x ptr], ptr %22, i64 0, i64 %24
  %26 = load ptr, ptr %25, align 8, !tbaa !26
  store ptr %26, ptr %10, align 8, !tbaa !26
  %27 = icmp ne ptr %26, null
  br i1 %27, label %28, label %50

28:                                               ; preds = %18
  %29 = load ptr, ptr %6, align 8, !tbaa !3
  %30 = load ptr, ptr %8, align 8, !tbaa !10
  %31 = call ptr @agstrbind(ptr noundef %29, ptr noundef %30)
  store ptr %31, ptr %13, align 8, !tbaa !10
  %32 = icmp ne ptr %31, null
  br i1 %32, label %33, label %49

33:                                               ; preds = %28
  %34 = load ptr, ptr %13, align 8, !tbaa !10
  %35 = getelementptr inbounds nuw %struct.IMapEntry_s, ptr %12, i32 0, i32 3
  store ptr %34, ptr %35, align 8, !tbaa !27
  %36 = load ptr, ptr %10, align 8, !tbaa !26
  %37 = getelementptr inbounds nuw %struct.dt_s_, ptr %36, i32 0, i32 0
  %38 = load ptr, ptr %37, align 8, !tbaa !29
  %39 = load ptr, ptr %10, align 8, !tbaa !26
  %40 = call ptr %38(ptr noundef %39, ptr noundef %12, i32 noundef 4)
  store ptr %40, ptr %11, align 8, !tbaa !33
  %41 = load ptr, ptr %11, align 8, !tbaa !33
  %42 = icmp ne ptr %41, null
  br i1 %42, label %43, label %48

43:                                               ; preds = %33
  %44 = load ptr, ptr %11, align 8, !tbaa !33
  %45 = getelementptr inbounds nuw %struct.IMapEntry_s, ptr %44, i32 0, i32 2
  %46 = load i64, ptr %45, align 8, !tbaa !35
  %47 = load ptr, ptr %9, align 8, !tbaa !12
  store i64 %46, ptr %47, align 8, !tbaa !36
  store i1 true, ptr %5, align 1
  store i32 1, ptr %14, align 4
  br label %51

48:                                               ; preds = %33
  br label %49

49:                                               ; preds = %48, %28
  br label %50

50:                                               ; preds = %49, %18
  store i1 false, ptr %5, align 1
  store i32 1, ptr %14, align 4
  br label %51

51:                                               ; preds = %50, %43
  call void @llvm.lifetime.end.p0(i64 8, ptr %13) #8
  call void @llvm.lifetime.end.p0(i64 48, ptr %12) #8
  call void @llvm.lifetime.end.p0(i64 8, ptr %11) #8
  call void @llvm.lifetime.end.p0(i64 8, ptr %10) #8
  %52 = load i1, ptr %5, align 1
  ret i1 %52
}