; Function Attrs: nounwind uwtable
define noundef zeroext i1 @aginternalmaplookup(ptr noundef %0, i32 noundef %1, ptr noundef %2, ptr noundef writeonly captures(none) %3) local_unnamed_addr #0 {
  %5 = alloca %struct.IMapEntry_s, align 8
  call void @llvm.lifetime.start.p0(i64 48, ptr nonnull %5) #10
  %6 = icmp eq i32 %1, 3
  %spec.store.select = select i1 %6, i32 2, i32 %1
  %7 = getelementptr inbounds nuw i8, ptr %0, i64 128
  %8 = load ptr, ptr %7, align 8, !tbaa !3
  %9 = getelementptr inbounds nuw i8, ptr %8, i64 64
  %10 = sext i32 %spec.store.select to i64
  %11 = getelementptr inbounds [3 x ptr], ptr %9, i64 0, i64 %10
  %12 = load ptr, ptr %11, align 8, !tbaa !20
  %.not = icmp eq ptr %12, null
  br i1 %.not, label %22, label %13

13:                                               ; preds = %4
  %14 = tail call ptr @agstrbind(ptr noundef nonnull %0, ptr noundef %2) #10
  %.not14 = icmp eq ptr %14, null
  br i1 %.not14, label %22, label %15

15:                                               ; preds = %13
  %16 = getelementptr inbounds nuw i8, ptr %5, i64 40
  store ptr %14, ptr %16, align 8, !tbaa !21
  %17 = load ptr, ptr %12, align 8, !tbaa !24
  %18 = call ptr %17(ptr noundef nonnull %12, ptr noundef nonnull %5, i32 noundef 4) #10
  %.not15 = icmp eq ptr %18, null
  br i1 %.not15, label %22, label %19

19:                                               ; preds = %15
  %20 = getelementptr inbounds nuw i8, ptr %18, i64 32
  %21 = load i64, ptr %20, align 8, !tbaa !28
  store i64 %21, ptr %3, align 8, !tbaa !29
  br label %22

22:                                               ; preds = %4, %15, %13, %19
  %.0 = phi i1 [ true, %19 ], [ false, %13 ], [ false, %15 ], [ false, %4 ]
  call void @llvm.lifetime.end.p0(i64 48, ptr nonnull %5) #10
  ret i1 %.0
}